target datalayout = "e-m:e-p270:32:32-p271:32:32-p272:64:64-i64:64-i128:128-f80:128-n8:16:32:64-S128"
target triple = "x86_64-unknown-linux-gnu"

%"class.std::__cxx11::basic_string" = type { %"struct.std::__cxx11::basic_string<char>::_Alloc_hider", i64, %union.anon }
%"struct.std::__cxx11::basic_string<char>::_Alloc_hider" = type { ptr }
%union.anon = type { i64, [8 x i8] }
%"class.google::protobuf::ConformanceTestSuite::ConformanceRequestSetting" = type { ptr, %"class.conformance::ConformanceRequest", i32, i32, i32, ptr, %"class.std::unique_ptr", %"class.std::__cxx11::basic_string" }
%"class.conformance::ConformanceRequest" = type { %"class.google::protobuf::Message", %"struct.google::protobuf::internal::ArenaStringPtr", ptr, i32, i32, i8, %"union.conformance::ConformanceRequest::PayloadUnion", %"class.google::protobuf::internal::CachedSize", [1 x i32] }
%"class.google::protobuf::Message" = type { %"class.google::protobuf::MessageLite" }
%"class.google::protobuf::MessageLite" = type { ptr, %"class.google::protobuf::internal::InternalMetadata" }
%"class.google::protobuf::internal::InternalMetadata" = type { ptr }
%"struct.google::protobuf::internal::ArenaStringPtr" = type { ptr }
%"union.conformance::ConformanceRequest::PayloadUnion" = type { %"struct.google::protobuf::internal::ArenaStringPtr" }
%"class.google::protobuf::internal::CachedSize" = type { %"struct.std::atomic" }
%"struct.std::atomic" = type { %"struct.std::__atomic_base" }
%"struct.std::__atomic_base" = type { i32 }
%"class.std::unique_ptr" = type { %"struct.std::__uniq_ptr_data" }
%"struct.std::__uniq_ptr_data" = type { %"class.std::__uniq_ptr_impl" }
%"class.std::__uniq_ptr_impl" = type { %"class.std::tuple" }
%"class.std::tuple" = type { %"struct.std::_Tuple_impl" }
%"struct.std::_Tuple_impl" = type { %"struct.std::_Head_base.1" }
%"struct.std::_Head_base.1" = type { ptr }
%"class.conformance::ConformanceResponse" = type { %"class.google::protobuf::Message", %"union.conformance::ConformanceResponse::ResultUnion", %"class.google::protobuf::internal::CachedSize", [1 x i32] }
%"union.conformance::ConformanceResponse::ResultUnion" = type { %"struct.google::protobuf::internal::ArenaStringPtr" }

; Function Attrs: mustprogress uwtable
define linkonce_odr dso_local void @_ZN11conformance19ConformanceResponseC2Ev(ptr noundef nonnull align 8 dereferenceable(32) %this) unnamed_addr #4 comdat align 2 {
entry:
  %this.addr = alloca ptr, align 8
  store ptr %this, ptr %this.addr, align 8
  %this1 = load ptr, ptr %this.addr, align 8
  call void @_ZN11conformance19ConformanceResponseC2EPN6google8protobuf5ArenaE(ptr noundef nonnull align 8 dereferenceable(32) %this1, ptr noundef null)
  ret void
}

; Function Attrs: mustprogress nounwind uwtable
define linkonce_odr dso_local noundef nonnull align 8 dereferenceable(64) ptr @_ZNK6google8protobuf20ConformanceTestSuite25ConformanceRequestSetting10GetRequestEv(ptr noundef nonnull align 8 dereferenceable(136) %this) #5 comdat align 2 {
entry:
  %this.addr = alloca ptr, align 8
  store ptr %this, ptr %this.addr, align 8
  %this1 = load ptr, ptr %this.addr, align 8
  %request_ = getelementptr inbounds %"class.google::protobuf::ConformanceTestSuite::ConformanceRequestSetting", ptr %this1, i32 0, i32 1
  ret ptr %request_
}

; Function Attrs: mustprogress uwtable
define dso_local void @_ZN6google8protobuf20ConformanceTestSuite23RunValidBinaryInputTestERKNS1_25ConformanceRequestSettingERKNSt7__cxx1112basic_stringIcSt11char_traitsIcESaIcEEEb(ptr noundef nonnull align 8 dereferenceable(400) %this, ptr noundef nonnull align 8 dereferenceable(136) %setting, ptr noundef nonnull align 8 dereferenceable(32) %equivalent_wire_format, i1 noundef zeroext %require_same_wire_format) #4 align 2 personality ptr @__gxx_personality_v0 {
entry:
  %this.addr = alloca ptr, align 8
  %setting.addr = alloca ptr, align 8
  %equivalent_wire_format.addr = alloca ptr, align 8
  %require_same_wire_format.addr = alloca i8, align 1
  %request = alloca ptr, align 8
  %response = alloca %"class.conformance::ConformanceResponse", align 8
  %ref.tmp = alloca %"class.std::__cxx11::basic_string", align 8
  %exn.slot = alloca ptr, align 8
  %ehselector.slot = alloca i32, align 4
  store ptr %this, ptr %this.addr, align 8
  store ptr %setting, ptr %setting.addr, align 8
  store ptr %equivalent_wire_format, ptr %equivalent_wire_format.addr, align 8
  %frombool = zext i1 %require_same_wire_format to i8
  store i8 %frombool, ptr %require_same_wire_format.addr, align 1
  %this1 = load ptr, ptr %this.addr, align 8
  %0 = load ptr, ptr %setting.addr, align 8
  %call = call noundef nonnull align 8 dereferenceable(64) ptr @_ZNK6google8protobuf20ConformanceTestSuite25ConformanceRequestSetting10GetRequestEv(ptr noundef nonnull align 8 dereferenceable(136) %0)
  store ptr %call, ptr %request, align 8
  call void @_ZN11conformance19ConformanceResponseC2Ev(ptr noundef nonnull align 8 dereferenceable(32) %response)
  %1 = load ptr, ptr %setting.addr, align 8
  invoke void @_ZNK6google8protobuf20ConformanceTestSuite25ConformanceRequestSetting11GetTestNameB5cxx11Ev(ptr sret(%"class.std::__cxx11::basic_string") align 8 %ref.tmp, ptr noundef nonnull align 8 dereferenceable(136) %1)
          to label %invoke.cont unwind label %lpad

invoke.cont:                                      ; preds = %entry
  %2 = load ptr, ptr %request, align 8
  invoke void @_ZN6google8protobuf20ConformanceTestSuite7RunTestERKNSt7__cxx1112basic_stringIcSt11char_traitsIcESaIcEEERKN11conformance18ConformanceRequestEPNSA_19ConformanceResponseE(ptr noundef nonnull align 8 dereferenceable(400) %this1, ptr noundef nonnull align 8 dereferenceable(32) %ref.tmp, ptr noundef nonnull align 8 dereferenceable(64) %2, ptr noundef %response)
          to label %invoke.cont3 unwind label %lpad2

invoke.cont3:                                     ; preds = %invoke.cont
  call void @_ZNSt7__cxx1112basic_stringIcSt11char_traitsIcESaIcEED2Ev(ptr noundef nonnull align 8 dereferenceable(32) %ref.tmp) #3
  %3 = load ptr, ptr %setting.addr, align 8
  %4 = load ptr, ptr %equivalent_wire_format.addr, align 8
  %5 = load i8, ptr %require_same_wire_format.addr, align 1
  %tobool = trunc i8 %5 to i1
  invoke void @_ZN6google8protobuf20ConformanceTestSuite14VerifyResponseERKNS1_25ConformanceRequestSettingERKNSt7__cxx1112basic_stringIcSt11char_traitsIcESaIcEEERKN11conformance19ConformanceResponseEbb(ptr noundef nonnull align 8 dereferenceable(400) %this1, ptr noundef nonnull align 8 dereferenceable(136) %3, ptr noundef nonnull align 8 dereferenceable(32) %4, ptr noundef nonnull align 8 dereferenceable(32) %response, i1 noundef zeroext true, i1 noundef zeroext %tobool)
          to label %invoke.cont4 unwind label %lpad

invoke.cont4:                                     ; preds = %invoke.cont3
  call void @_ZN11conformance19ConformanceResponseD1Ev(ptr noundef nonnull align 8 dereferenceable(32) %response) #3
  ret void

lpad:                                             ; preds = %invoke.cont3, %entry
  %6 = landingpad { ptr, i32 }
          cleanup
  %7 = extractvalue { ptr, i32 } %6, 0
  store ptr %7, ptr %exn.slot, align 8
  %8 = extractvalue { ptr, i32 } %6, 1
  store i32 %8, ptr %ehselector.slot, align 4
  br label %ehcleanup

lpad2:                                            ; preds = %invoke.cont
  %9 = landingpad { ptr, i32 }
          cleanup
  %10 = extractvalue { ptr, i32 } %9, 0
  store ptr %10, ptr %exn.slot, align 8
  %11 = extractvalue { ptr, i32 } %9, 1
  store i32 %11, ptr %ehselector.slot, align 4
  call void @_ZNSt7__cxx1112basic_stringIcSt11char_traitsIcESaIcEED2Ev(ptr noundef nonnull align 8 dereferenceable(32) %ref.tmp) #3
  br label %ehcleanup

ehcleanup:                                        ; preds = %lpad2, %lpad
  call void @_ZN11conformance19ConformanceResponseD1Ev(ptr noundef nonnull align 8 dereferenceable(32) %response) #3
  br label %eh.resume

eh.resume:                                        ; preds = %ehcleanup
  %exn = load ptr, ptr %exn.slot, align 8
  %sel = load i32, ptr %ehselector.slot, align 4
  %lpad.val = insertvalue { ptr, i32 } poison, ptr %exn, 0
  %lpad.val5 = insertvalue { ptr, i32 } %lpad.val, i32 %sel, 1
  resume { ptr, i32 } %lpad.val5
}