; Function Attrs: mustprogress uwtable
define dso_local void @_ZN6google8protobuf20ConformanceTestSuite23RunValidBinaryInputTestERKNS1_25ConformanceRequestSettingERKNSt7__cxx1112basic_stringIcSt11char_traitsIcESaIcEEEb(ptr noundef nonnull align 8 dereferenceable(400) %this, ptr noundef nonnull align 8 dereferenceable(136) %setting, ptr noundef nonnull align 8 dereferenceable(32) %equivalent_wire_format, i1 noundef zeroext %require_same_wire_format) local_unnamed_addr #3 align 2 personality ptr @__gxx_personality_v0 {
entry:
  %response = alloca %"class.conformance::ConformanceResponse", align 8
  %ref.tmp = alloca %"class.std::__cxx11::basic_string", align 8
  call void @_ZN11conformance19ConformanceResponseC2EPN6google8protobuf5ArenaE(ptr noundef nonnull align 8 dereferenceable(32) %response, ptr noundef null)
  invoke void @_ZNK6google8protobuf20ConformanceTestSuite25ConformanceRequestSetting11GetTestNameB5cxx11Ev(ptr nonnull sret(%"class.std::__cxx11::basic_string") align 8 %ref.tmp, ptr noundef nonnull align 8 dereferenceable(136) %setting)
          to label %invoke.cont unwind label %lpad

invoke.cont:                                      ; preds = %entry
  %request_.i = getelementptr inbounds i8, ptr %setting, i64 8
  invoke void @_ZN6google8protobuf20ConformanceTestSuite7RunTestERKNSt7__cxx1112basic_stringIcSt11char_traitsIcESaIcEEERKN11conformance18ConformanceRequestEPNSA_19ConformanceResponseE(ptr noundef nonnull align 8 dereferenceable(400) %this, ptr noundef nonnull align 8 dereferenceable(32) %ref.tmp, ptr noundef nonnull align 8 dereferenceable(64) %request_.i, ptr noundef nonnull %response)
          to label %invoke.cont3 unwind label %lpad2

invoke.cont3:                                     ; preds = %invoke.cont
  %0 = load ptr, ptr %ref.tmp, align 8
  %1 = getelementptr inbounds i8, ptr %ref.tmp, i64 16
  %cmp.i.i.i = icmp eq ptr %0, %1
  br i1 %cmp.i.i.i, label %_ZNKSt7__cxx1112basic_stringIcSt11char_traitsIcESaIcEE11_M_is_localEv.exit.thread.i.i, label %if.then.i.i

_ZNKSt7__cxx1112basic_stringIcSt11char_traitsIcESaIcEE11_M_is_localEv.exit.thread.i.i: ; preds = %invoke.cont3
  %_M_string_length.i.i.i = getelementptr inbounds i8, ptr %ref.tmp, i64 8
  %2 = load i64, ptr %_M_string_length.i.i.i, align 8
  %cmp3.i.i.i = icmp ult i64 %2, 16
  call void @llvm.assume(i1 %cmp3.i.i.i)
  br label %_ZNSt7__cxx1112basic_stringIcSt11char_traitsIcESaIcEED2Ev.exit

if.then.i.i:                                      ; preds = %invoke.cont3
  call void @_ZdlPv(ptr noundef %0) #21
  br label %_ZNSt7__cxx1112basic_stringIcSt11char_traitsIcESaIcEED2Ev.exit

_ZNSt7__cxx1112basic_stringIcSt11char_traitsIcESaIcEED2Ev.exit: ; preds = %_ZNKSt7__cxx1112basic_stringIcSt11char_traitsIcESaIcEE11_M_is_localEv.exit.thread.i.i, %if.then.i.i
  call void @_ZNSaIcED2Ev(ptr noundef nonnull align 1 dereferenceable(1) %ref.tmp) #18
  invoke void @_ZN6google8protobuf20ConformanceTestSuite14VerifyResponseERKNS1_25ConformanceRequestSettingERKNSt7__cxx1112basic_stringIcSt11char_traitsIcESaIcEEERKN11conformance19ConformanceResponseEbb(ptr noundef nonnull align 8 dereferenceable(400) %this, ptr noundef nonnull align 8 dereferenceable(136) %setting, ptr noundef nonnull align 8 dereferenceable(32) %equivalent_wire_format, ptr noundef nonnull align 8 dereferenceable(32) %response, i1 noundef zeroext true, i1 noundef zeroext %require_same_wire_format)
          to label %invoke.cont4 unwind label %lpad

invoke.cont4:                                     ; preds = %_ZNSt7__cxx1112basic_stringIcSt11char_traitsIcESaIcEED2Ev.exit
  call void @_ZN11conformance19ConformanceResponseD1Ev(ptr noundef nonnull align 8 dereferenceable(32) %response) #18
  ret void

lpad:                                             ; preds = %_ZNSt7__cxx1112basic_stringIcSt11char_traitsIcESaIcEED2Ev.exit, %entry
  %3 = landingpad { ptr, i32 }
          cleanup
  br label %ehcleanup

lpad2:                                            ; preds = %invoke.cont
  %4 = landingpad { ptr, i32 }
          cleanup
  call void @_ZNSt7__cxx1112basic_stringIcSt11char_traitsIcESaIcEED2Ev(ptr noundef nonnull align 8 dereferenceable(32) %ref.tmp) #18
  br label %ehcleanup

ehcleanup:                                        ; preds = %lpad2, %lpad
  %.pn = phi { ptr, i32 } [ %3, %lpad ], [ %4, %lpad2 ]
  call void @_ZN11conformance19ConformanceResponseD1Ev(ptr noundef nonnull align 8 dereferenceable(32) %response) #18
  resume { ptr, i32 } %.pn
}